	.file	"simplesync.c"
	.text
.Ltext0:
	.file 0 "/home/angelos/Documents/source_code/os/ex3/1.1" "simplesync.c"
	.section	.rodata.str1.8,"aMS",@progbits,1
	.align 8
.LC0:
	.string	"About to increase variable %d times\n"
	.section	.rodata.str1.1,"aMS",@progbits,1
.LC1:
	.string	"pthread_mutex_lock"
.LC2:
	.string	"pthread_mutex_unlock"
.LC3:
	.string	"Done increasing variable.\n"
	.text
	.p2align 4
	.globl	increase_fn
	.type	increase_fn, @function
increase_fn:
.LVL0:
.LFB40:
	.file 1 "simplesync.c"
	.loc 1 29 1 view -0
	.cfi_startproc
	.loc 1 29 1 is_stmt 0 view .LVU1
	endbr64
	.loc 1 30 2 is_stmt 1 view .LVU2
	.loc 1 31 2 view .LVU3
	.loc 1 29 1 is_stmt 0 view .LVU4
	pushq	%r15
	.cfi_def_cfa_offset 16
	.cfi_offset 15, -16
.LBB12:
.LBB13:
	.file 2 "/usr/include/x86_64-linux-gnu/bits/stdio2.h"
	.loc 2 105 10 view .LVU5
	movl	$1000000, %ecx
	leaq	.LC0(%rip), %rdx
	xorl	%eax, %eax
.LBE13:
.LBE12:
	.loc 1 29 1 view .LVU6
	pushq	%r14
	.cfi_def_cfa_offset 24
	.cfi_offset 14, -24
.LBB18:
.LBB14:
	.loc 2 105 10 view .LVU7
	movl	$1, %esi
.LBE14:
.LBE18:
	.loc 1 40 5 view .LVU8
	leaq	.LC1(%rip), %r15
	.loc 1 44 5 view .LVU9
	leaq	.LC2(%rip), %r14
	.loc 1 29 1 view .LVU10
	pushq	%r13
	.cfi_def_cfa_offset 32
	.cfi_offset 13, -32
	leaq	mutex(%rip), %r13
	pushq	%r12
	.cfi_def_cfa_offset 40
	.cfi_offset 12, -40
	movq	%rdi, %r12
.LVL1:
	.loc 1 33 2 is_stmt 1 view .LVU11
.LBB19:
.LBI12:
	.loc 2 103 1 view .LVU12
.LBB15:
	.loc 2 105 3 view .LVU13
.LBE15:
.LBE19:
	.loc 1 29 1 is_stmt 0 view .LVU14
	pushq	%rbp
	.cfi_def_cfa_offset 48
	.cfi_offset 6, -48
.LBB20:
.LBB16:
	.loc 2 105 10 view .LVU15
	movl	$1000000, %ebp
.LBE16:
.LBE20:
	.loc 1 29 1 view .LVU16
	pushq	%rbx
	.cfi_def_cfa_offset 56
	.cfi_offset 3, -56
	subq	$8, %rsp
	.cfi_def_cfa_offset 64
.LBB21:
.LBB17:
	.loc 2 105 10 view .LVU17
	movq	stderr(%rip), %rdi
.LVL2:
	.loc 2 105 10 view .LVU18
	call	__fprintf_chk@PLT
.LVL3:
	.loc 2 105 10 view .LVU19
.LBE17:
.LBE21:
	.loc 1 34 2 is_stmt 1 view .LVU20
	.loc 1 34 16 view .LVU21
	jmp	.L4
.LVL4:
	.p2align 4,,10
	.p2align 3
.L2:
	.loc 1 40 5 discriminator 1 view .LVU22
	.loc 1 41 4 discriminator 1 view .LVU23
	.loc 1 41 7 is_stmt 0 discriminator 1 view .LVU24
	movl	(%r12), %eax
	.loc 1 42 8 discriminator 1 view .LVU25
	movq	%r13, %rdi
	.loc 1 41 4 discriminator 1 view .LVU26
	addl	$1, %eax
	movl	%eax, (%r12)
	.loc 1 42 4 is_stmt 1 discriminator 1 view .LVU27
	.loc 1 42 8 is_stmt 0 discriminator 1 view .LVU28
	call	pthread_mutex_unlock@PLT
.LVL5:
	movl	%eax, %ebx
.LVL6:
	.loc 1 43 4 is_stmt 1 discriminator 1 view .LVU29
	.loc 1 43 6 is_stmt 0 discriminator 1 view .LVU30
	testl	%eax, %eax
	jne	.L14
	.loc 1 44 5 is_stmt 1 discriminator 1 view .LVU31
	.loc 1 34 22 discriminator 1 view .LVU32
.LVL7:
	.loc 1 34 16 discriminator 1 view .LVU33
	subl	$1, %ebp
.LVL8:
	.loc 1 34 16 is_stmt 0 discriminator 1 view .LVU34
	je	.L15
.LVL9:
.L4:
	.loc 1 35 3 is_stmt 1 view .LVU35
	.loc 1 38 4 view .LVU36
	.loc 1 38 8 is_stmt 0 view .LVU37
	movq	%r13, %rdi
	call	pthread_mutex_lock@PLT
.LVL10:
	movl	%eax, %ebx
.LVL11:
	.loc 1 39 4 is_stmt 1 view .LVU38
	.loc 1 39 6 is_stmt 0 view .LVU39
	testl	%eax, %eax
	je	.L2
	.loc 1 40 5 is_stmt 1 view .LVU40
	.loc 1 40 5 view .LVU41
	call	__errno_location@PLT
.LVL12:
	.loc 1 40 5 is_stmt 0 view .LVU42
	movq	%r15, %rdi
	movl	%ebx, (%rax)
	.loc 1 40 5 is_stmt 1 view .LVU43
	call	perror@PLT
.LVL13:
	jmp	.L2
.LVL14:
	.p2align 4,,10
	.p2align 3
.L14:
	.loc 1 44 5 view .LVU44
	.loc 1 44 5 view .LVU45
	call	__errno_location@PLT
.LVL15:
	.loc 1 44 5 is_stmt 0 view .LVU46
	movq	%r14, %rdi
	movl	%ebx, (%rax)
	.loc 1 44 5 is_stmt 1 view .LVU47
	call	perror@PLT
.LVL16:
	.loc 1 44 5 view .LVU48
	.loc 1 34 22 view .LVU49
	.loc 1 34 16 view .LVU50
	subl	$1, %ebp
.LVL17:
	.loc 1 34 16 is_stmt 0 view .LVU51
	jne	.L4
.LVL18:
.L15:
	.loc 1 47 2 is_stmt 1 view .LVU52
.LBB22:
.LBI22:
	.loc 2 103 1 view .LVU53
.LBB23:
	.loc 2 105 3 view .LVU54
	.loc 2 105 10 is_stmt 0 view .LVU55
	movq	stderr(%rip), %rcx
	movl	$26, %edx
	movl	$1, %esi
	leaq	.LC3(%rip), %rdi
	call	fwrite@PLT
.LVL19:
	.loc 2 105 10 view .LVU56
.LBE23:
.LBE22:
	.loc 1 49 2 is_stmt 1 view .LVU57
	.loc 1 50 1 is_stmt 0 view .LVU58
	addq	$8, %rsp
	.cfi_def_cfa_offset 56
	xorl	%eax, %eax
	popq	%rbx
	.cfi_def_cfa_offset 48
.LVL20:
	.loc 1 50 1 view .LVU59
	popq	%rbp
	.cfi_def_cfa_offset 40
	popq	%r12
	.cfi_def_cfa_offset 32
.LVL21:
	.loc 1 50 1 view .LVU60
	popq	%r13
	.cfi_def_cfa_offset 24
	popq	%r14
	.cfi_def_cfa_offset 16
	popq	%r15
	.cfi_def_cfa_offset 8
	ret
	.cfi_endproc
.LFE40:
	.size	increase_fn, .-increase_fn
	.section	.rodata.str1.8
	.align 8
.LC4:
	.string	"About to decrease variable %d times\n"
	.section	.rodata.str1.1
.LC5:
	.string	"Done decreasing variable.\n"
	.text
	.p2align 4
	.globl	decrease_fn
	.type	decrease_fn, @function
decrease_fn:
.LVL22:
.LFB41:
	.loc 1 53 1 is_stmt 1 view -0
	.cfi_startproc
	.loc 1 53 1 is_stmt 0 view .LVU62
	endbr64
	.loc 1 54 2 is_stmt 1 view .LVU63
	.loc 1 55 2 view .LVU64
	.loc 1 53 1 is_stmt 0 view .LVU65
	pushq	%r15
	.cfi_def_cfa_offset 16
	.cfi_offset 15, -16
.LBB24:
.LBB25:
	.loc 2 105 10 view .LVU66
	movl	$1000000, %ecx
	leaq	.LC4(%rip), %rdx
	xorl	%eax, %eax
.LBE25:
.LBE24:
	.loc 1 53 1 view .LVU67
	pushq	%r14
	.cfi_def_cfa_offset 24
	.cfi_offset 14, -24
.LBB30:
.LBB26:
	.loc 2 105 10 view .LVU68
	movl	$1, %esi
.LBE26:
.LBE30:
	.loc 1 64 5 view .LVU69
	leaq	.LC1(%rip), %r15
	.loc 1 68 5 view .LVU70
	leaq	.LC2(%rip), %r14
	.loc 1 53 1 view .LVU71
	pushq	%r13
	.cfi_def_cfa_offset 32
	.cfi_offset 13, -32
	leaq	mutex(%rip), %r13
	pushq	%r12
	.cfi_def_cfa_offset 40
	.cfi_offset 12, -40
	movq	%rdi, %r12
.LVL23:
	.loc 1 57 2 is_stmt 1 view .LVU72
.LBB31:
.LBI24:
	.loc 2 103 1 view .LVU73
.LBB27:
	.loc 2 105 3 view .LVU74
.LBE27:
.LBE31:
	.loc 1 53 1 is_stmt 0 view .LVU75
	pushq	%rbp
	.cfi_def_cfa_offset 48
	.cfi_offset 6, -48
.LBB32:
.LBB28:
	.loc 2 105 10 view .LVU76
	movl	$1000000, %ebp
.LBE28:
.LBE32:
	.loc 1 53 1 view .LVU77
	pushq	%rbx
	.cfi_def_cfa_offset 56
	.cfi_offset 3, -56
	subq	$8, %rsp
	.cfi_def_cfa_offset 64
.LBB33:
.LBB29:
	.loc 2 105 10 view .LVU78
	movq	stderr(%rip), %rdi
.LVL24:
	.loc 2 105 10 view .LVU79
	call	__fprintf_chk@PLT
.LVL25:
	.loc 2 105 10 view .LVU80
.LBE29:
.LBE33:
	.loc 1 58 2 is_stmt 1 view .LVU81
	.loc 1 58 16 view .LVU82
	jmp	.L19
.LVL26:
	.p2align 4,,10
	.p2align 3
.L17:
	.loc 1 64 5 discriminator 1 view .LVU83
	.loc 1 65 4 discriminator 1 view .LVU84
	.loc 1 65 7 is_stmt 0 discriminator 1 view .LVU85
	movl	(%r12), %eax
	.loc 1 66 8 discriminator 1 view .LVU86
	movq	%r13, %rdi
	.loc 1 65 4 discriminator 1 view .LVU87
	subl	$1, %eax
	movl	%eax, (%r12)
	.loc 1 66 4 is_stmt 1 discriminator 1 view .LVU88
	.loc 1 66 8 is_stmt 0 discriminator 1 view .LVU89
	call	pthread_mutex_unlock@PLT
.LVL27:
	movl	%eax, %ebx
.LVL28:
	.loc 1 67 4 is_stmt 1 discriminator 1 view .LVU90
	.loc 1 67 6 is_stmt 0 discriminator 1 view .LVU91
	testl	%eax, %eax
	jne	.L28
	.loc 1 68 5 is_stmt 1 discriminator 1 view .LVU92
	.loc 1 58 22 discriminator 1 view .LVU93
.LVL29:
	.loc 1 58 16 discriminator 1 view .LVU94
	subl	$1, %ebp
.LVL30:
	.loc 1 58 16 is_stmt 0 discriminator 1 view .LVU95
	je	.L29
.LVL31:
.L19:
	.loc 1 59 3 is_stmt 1 view .LVU96
	.loc 1 62 4 view .LVU97
	.loc 1 62 8 is_stmt 0 view .LVU98
	movq	%r13, %rdi
	call	pthread_mutex_lock@PLT
.LVL32:
	movl	%eax, %ebx
.LVL33:
	.loc 1 63 4 is_stmt 1 view .LVU99
	.loc 1 63 6 is_stmt 0 view .LVU100
	testl	%eax, %eax
	je	.L17
	.loc 1 64 5 is_stmt 1 view .LVU101
	.loc 1 64 5 view .LVU102
	call	__errno_location@PLT
.LVL34:
	.loc 1 64 5 is_stmt 0 view .LVU103
	movq	%r15, %rdi
	movl	%ebx, (%rax)
	.loc 1 64 5 is_stmt 1 view .LVU104
	call	perror@PLT
.LVL35:
	jmp	.L17
.LVL36:
	.p2align 4,,10
	.p2align 3
.L28:
	.loc 1 68 5 view .LVU105
	.loc 1 68 5 view .LVU106
	call	__errno_location@PLT
.LVL37:
	.loc 1 68 5 is_stmt 0 view .LVU107
	movq	%r14, %rdi
	movl	%ebx, (%rax)
	.loc 1 68 5 is_stmt 1 view .LVU108
	call	perror@PLT
.LVL38:
	.loc 1 68 5 view .LVU109
	.loc 1 58 22 view .LVU110
	.loc 1 58 16 view .LVU111
	subl	$1, %ebp
.LVL39:
	.loc 1 58 16 is_stmt 0 view .LVU112
	jne	.L19
.LVL40:
.L29:
	.loc 1 71 2 is_stmt 1 view .LVU113
.LBB34:
.LBI34:
	.loc 2 103 1 view .LVU114
.LBB35:
	.loc 2 105 3 view .LVU115
	.loc 2 105 10 is_stmt 0 view .LVU116
	movq	stderr(%rip), %rcx
	movl	$26, %edx
	movl	$1, %esi
	leaq	.LC5(%rip), %rdi
	call	fwrite@PLT
.LVL41:
	.loc 2 105 10 view .LVU117
.LBE35:
.LBE34:
	.loc 1 73 2 is_stmt 1 view .LVU118
	.loc 1 74 1 is_stmt 0 view .LVU119
	addq	$8, %rsp
	.cfi_def_cfa_offset 56
	xorl	%eax, %eax
	popq	%rbx
	.cfi_def_cfa_offset 48
.LVL42:
	.loc 1 74 1 view .LVU120
	popq	%rbp
	.cfi_def_cfa_offset 40
	popq	%r12
	.cfi_def_cfa_offset 32
.LVL43:
	.loc 1 74 1 view .LVU121
	popq	%r13
	.cfi_def_cfa_offset 24
	popq	%r14
	.cfi_def_cfa_offset 16
	popq	%r15
	.cfi_def_cfa_offset 8
	ret
	.cfi_endproc
.LFE41:
	.size	decrease_fn, .-decrease_fn
	.section	.rodata.str1.1
.LC6:
	.string	""
.LC7:
	.string	"NOT "
.LC8:
	.string	"pthread_create"
.LC9:
	.string	"pthread_join"
.LC10:
	.string	"pthread_mutex_destroy"
.LC11:
	.string	"%sOK, val = %d.\n"
	.section	.text.startup,"ax",@progbits
	.p2align 4
	.globl	main
	.type	main, @function
main:
.LVL44:
.LFB42:
	.loc 1 78 1 is_stmt 1 view -0
	.cfi_startproc
	.loc 1 78 1 is_stmt 0 view .LVU123
	endbr64
	pushq	%r13
	.cfi_def_cfa_offset 16
	.cfi_offset 13, -16
	.loc 1 90 6 view .LVU124
	xorl	%esi, %esi
.LVL45:
	.loc 1 90 6 view .LVU125
	leaq	increase_fn(%rip), %rdx
	.loc 1 78 1 view .LVU126
	pushq	%r12
	.cfi_def_cfa_offset 24
	.cfi_offset 12, -24
	pushq	%rbx
	.cfi_def_cfa_offset 32
	.cfi_offset 3, -32
	subq	$32, %rsp
	.cfi_def_cfa_offset 64
	.loc 1 78 1 view .LVU127
	movq	%fs:40, %rax
	movq	%rax, 24(%rsp)
	xorl	%eax, %eax
	.loc 1 79 2 is_stmt 1 view .LVU128
	.loc 1 80 2 view .LVU129
	.loc 1 85 2 view .LVU130
	.loc 1 90 6 is_stmt 0 view .LVU131
	leaq	4(%rsp), %r12
	leaq	8(%rsp), %rdi
.LVL46:
	.loc 1 85 5 view .LVU132
	movl	$0, 4(%rsp)
	.loc 1 90 2 is_stmt 1 view .LVU133
	.loc 1 90 6 is_stmt 0 view .LVU134
	movq	%r12, %rcx
	call	pthread_create@PLT
.LVL47:
	.loc 1 91 2 is_stmt 1 view .LVU135
	.loc 1 91 4 is_stmt 0 view .LVU136
	testl	%eax, %eax
	jne	.L50
	.loc 1 95 2 is_stmt 1 view .LVU137
	.loc 1 95 6 is_stmt 0 view .LVU138
	leaq	16(%rsp), %rdi
	movq	%r12, %rcx
	leaq	decrease_fn(%rip), %rdx
	xorl	%esi, %esi
	call	pthread_create@PLT
.LVL48:
	.loc 1 95 6 view .LVU139
	movl	%eax, %ebx
.LVL49:
	.loc 1 96 2 is_stmt 1 view .LVU140
	.loc 1 96 4 is_stmt 0 view .LVU141
	testl	%eax, %eax
	jne	.L49
	.loc 1 104 2 is_stmt 1 view .LVU142
	.loc 1 104 6 is_stmt 0 view .LVU143
	movq	8(%rsp), %rdi
	xorl	%esi, %esi
	call	pthread_join@PLT
.LVL50:
	.loc 1 104 6 view .LVU144
	movl	%eax, %ebx
.LVL51:
	.loc 1 105 2 is_stmt 1 view .LVU145
	.loc 1 105 4 is_stmt 0 view .LVU146
	testl	%eax, %eax
	jne	.L51
.LVL52:
.L33:
	.loc 1 106 3 is_stmt 1 discriminator 1 view .LVU147
	.loc 1 107 2 discriminator 1 view .LVU148
	.loc 1 107 6 is_stmt 0 discriminator 1 view .LVU149
	movq	16(%rsp), %rdi
	xorl	%esi, %esi
	call	pthread_join@PLT
.LVL53:
	movl	%eax, %ebx
.LVL54:
	.loc 1 108 2 is_stmt 1 discriminator 1 view .LVU150
	.loc 1 108 4 is_stmt 0 discriminator 1 view .LVU151
	testl	%eax, %eax
	jne	.L52
.LVL55:
.L34:
	.loc 1 109 3 is_stmt 1 discriminator 1 view .LVU152
	.loc 1 114 2 discriminator 1 view .LVU153
	.loc 1 114 9 is_stmt 0 discriminator 1 view .LVU154
	movl	4(%rsp), %r12d
	xorl	%r13d, %r13d
	.loc 1 116 6 discriminator 1 view .LVU155
	leaq	mutex(%rip), %rdi
	.loc 1 114 9 discriminator 1 view .LVU156
	testl	%r12d, %r12d
	sete	%r13b
.LVL56:
	.loc 1 116 2 is_stmt 1 discriminator 1 view .LVU157
	.loc 1 116 6 is_stmt 0 discriminator 1 view .LVU158
	call	pthread_mutex_destroy@PLT
.LVL57:
	movl	%eax, %ebx
.LVL58:
	.loc 1 117 2 is_stmt 1 discriminator 1 view .LVU159
	.loc 1 117 4 is_stmt 0 discriminator 1 view .LVU160
	testl	%eax, %eax
	jne	.L53
.LVL59:
.L35:
	.loc 1 118 3 is_stmt 1 discriminator 1 view .LVU161
	.loc 1 120 2 discriminator 1 view .LVU162
	testl	%r12d, %r12d
	leaq	.LC6(%rip), %rax
.LBB36:
.LBB37:
	.loc 2 112 10 is_stmt 0 discriminator 1 view .LVU163
	movl	4(%rsp), %ecx
.LBE37:
.LBE36:
	.loc 1 120 2 discriminator 1 view .LVU164
	leaq	.LC7(%rip), %rdx
	cmove	%rax, %rdx
.LVL60:
.LBB39:
.LBI36:
	.loc 2 110 1 is_stmt 1 discriminator 1 view .LVU165
.LBB38:
	.loc 2 112 3 discriminator 1 view .LVU166
	.loc 2 112 10 is_stmt 0 discriminator 1 view .LVU167
	leaq	.LC11(%rip), %rsi
	xorl	%eax, %eax
	movl	$1, %edi
	call	__printf_chk@PLT
.LVL61:
	.loc 2 112 10 discriminator 1 view .LVU168
.LBE38:
.LBE39:
	.loc 1 122 2 is_stmt 1 discriminator 1 view .LVU169
	.loc 1 123 1 is_stmt 0 discriminator 1 view .LVU170
	movq	24(%rsp), %rax
	subq	%fs:40, %rax
	jne	.L54
	.loc 1 123 1 view .LVU171
	addq	$32, %rsp
	.cfi_remember_state
	.cfi_def_cfa_offset 32
	movl	%r13d, %eax
	popq	%rbx
	.cfi_def_cfa_offset 24
.LVL62:
	.loc 1 123 1 view .LVU172
	popq	%r12
	.cfi_def_cfa_offset 16
	popq	%r13
	.cfi_def_cfa_offset 8
.LVL63:
	.loc 1 123 1 view .LVU173
	ret
.LVL64:
.L51:
	.cfi_restore_state
	.loc 1 106 3 is_stmt 1 view .LVU174
	.loc 1 106 3 view .LVU175
	call	__errno_location@PLT
.LVL65:
	.loc 1 106 3 is_stmt 0 view .LVU176
	leaq	.LC9(%rip), %rdi
	movl	%ebx, (%rax)
	.loc 1 106 3 is_stmt 1 view .LVU177
	call	perror@PLT
.LVL66:
	jmp	.L33
.LVL67:
.L53:
	.loc 1 118 3 view .LVU178
	.loc 1 118 3 view .LVU179
	call	__errno_location@PLT
.LVL68:
	.loc 1 118 3 is_stmt 0 view .LVU180
	leaq	.LC10(%rip), %rdi
	movl	%ebx, (%rax)
	.loc 1 118 3 is_stmt 1 view .LVU181
	call	perror@PLT
.LVL69:
	jmp	.L35
.LVL70:
.L52:
	.loc 1 109 3 view .LVU182
	.loc 1 109 3 view .LVU183
	call	__errno_location@PLT
.LVL71:
	.loc 1 109 3 is_stmt 0 view .LVU184
	leaq	.LC9(%rip), %rdi
	movl	%ebx, (%rax)
	.loc 1 109 3 is_stmt 1 view .LVU185
	call	perror@PLT
.LVL72:
	jmp	.L34
.LVL73:
.L50:
	.loc 1 109 3 is_stmt 0 view .LVU186
	movl	%eax, %ebx
	.loc 1 92 3 is_stmt 1 view .LVU187
	.loc 1 92 3 view .LVU188
.LVL74:
.L49:
	.loc 1 97 3 view .LVU189
	.loc 1 97 3 view .LVU190
	call	__errno_location@PLT
.LVL75:
	leaq	.LC8(%rip), %rdi
	movl	%ebx, (%rax)
	.loc 1 97 3 view .LVU191
	call	perror@PLT
.LVL76:
	.loc 1 97 3 view .LVU192
	.loc 1 98 3 view .LVU193
	movl	$1, %edi
	call	exit@PLT
.LVL77:
.L54:
	.loc 1 123 1 is_stmt 0 view .LVU194
	call	__stack_chk_fail@PLT
.LVL78:
	.cfi_endproc
.LFE42:
	.size	main, .-main
	.globl	mutex
	.bss
	.align 32
	.type	mutex, @object
	.size	mutex, 40
mutex:
	.zero	40
	.text
.Letext0:
	.file 3 "/usr/lib/gcc/x86_64-linux-gnu/11/include/stddef.h"
	.file 4 "/usr/include/x86_64-linux-gnu/bits/types.h"
	.file 5 "/usr/include/x86_64-linux-gnu/bits/types/struct_FILE.h"
	.file 6 "/usr/include/x86_64-linux-gnu/bits/types/FILE.h"
	.file 7 "/usr/include/x86_64-linux-gnu/bits/thread-shared-types.h"
	.file 8 "/usr/include/x86_64-linux-gnu/bits/struct_mutex.h"
	.file 9 "/usr/include/x86_64-linux-gnu/bits/pthreadtypes.h"
	.file 10 "/usr/include/stdio.h"
	.file 11 "/usr/include/pthread.h"
	.file 12 "/usr/include/stdlib.h"
	.file 13 "/usr/include/errno.h"
	.file 14 "<built-in>"
	.section	.note.GNU-stack,"",@progbits
	.section	.note.gnu.property,"a"
	.align 8
	.long	1f - 0f
	.long	4f - 1f
	.long	5
0:
	.string	"GNU"
1:
	.align 8
	.long	0xc0000002
	.long	3f - 2f
2:
	.long	0x3
3:
	.align 8
4:
